; Function Attrs: mustprogress nounwind uwtable
define hidden void @_ZN6hermes5irgen11ESTreeIRGen20genExpressionWrapperEPNS_6ESTree4NodeE(ptr noundef nonnull align 8 dereferenceable(200) %this, ptr noundef %expr) local_unnamed_addr #0 align 2 {
entry:
  %call = tail call noundef ptr @_ZN6hermes5irgen11ESTreeIRGen13genExpressionEPNS_6ESTree4NodeENS_10IdentifierE(ptr noundef nonnull align 8 dereferenceable(200) %this, ptr noundef %expr, ptr null) #8
  %functionContext_.i = getelementptr inbounds nuw i8, ptr %this, i64 80
  %0 = load ptr, ptr %functionContext_.i, align 8
  %globalReturnRegister = getelementptr inbounds nuw i8, ptr %0, i64 144
  %1 = load ptr, ptr %globalReturnRegister, align 8
  %tobool.not = icmp eq ptr %1, null
  br i1 %tobool.not, label %if.end, label %if.then

if.then:                                          ; preds = %entry
  %Builder = getelementptr inbounds nuw i8, ptr %this, i64 8
  %call5 = tail call noundef ptr @_ZN6hermes9IRBuilder20createStoreStackInstEPNS_5ValueEPNS_14AllocStackInstE(ptr noundef nonnull align 8 dereferenceable(40) %Builder, ptr noundef %call, ptr noundef nonnull %1) #8
  br label %if.end

if.end:                                           ; preds = %if.then, %entry
  ret void
}